target datalayout = "e-m:e-p270:32:32-p271:32:32-p272:64:64-i64:64-i128:128-f80:128-n8:16:32:64-S128"
target triple = "x86_64-pc-linux-gnu"

; Function Attrs: nounwind uwtable
define internal i32 @H5LT_get_attribute_mem(i64 noundef %0, ptr noundef %1, ptr noundef %2, i64 noundef %3, ptr noundef %4) #0 {
  %6 = alloca i32, align 4
  %7 = alloca i64, align 8
  %8 = alloca ptr, align 8
  %9 = alloca ptr, align 8
  %10 = alloca i64, align 8
  %11 = alloca ptr, align 8
  %12 = alloca i64, align 8
  %13 = alloca i64, align 8
  %14 = alloca i32, align 4
  store i64 %0, ptr %7, align 8, !tbaa !3
  store ptr %1, ptr %8, align 8, !tbaa !7
  store ptr %2, ptr %9, align 8, !tbaa !7
  store i64 %3, ptr %10, align 8, !tbaa !3
  store ptr %4, ptr %11, align 8, !tbaa !14
  call void @llvm.lifetime.start.p0(i64 8, ptr %12) #11
  store i64 -1, ptr %12, align 8, !tbaa !3
  call void @llvm.lifetime.start.p0(i64 8, ptr %13) #11
  store i64 -1, ptr %13, align 8, !tbaa !3
  %15 = load ptr, ptr %8, align 8, !tbaa !7
  %16 = icmp eq ptr %15, null
  br i1 %16, label %17, label %18

17:                                               ; preds = %5
  store i32 -1, ptr %6, align 4
  store i32 1, ptr %14, align 4
  br label %65

18:                                               ; preds = %5
  %19 = load ptr, ptr %9, align 8, !tbaa !7
  %20 = icmp eq ptr %19, null
  br i1 %20, label %21, label %22

21:                                               ; preds = %18
  store i32 -1, ptr %6, align 4
  store i32 1, ptr %14, align 4
  br label %65

22:                                               ; preds = %18
  %23 = load i64, ptr %7, align 8, !tbaa !3
  %24 = load ptr, ptr %8, align 8, !tbaa !7
  %25 = call i64 @H5Oopen(i64 noundef %23, ptr noundef %24, i64 noundef 0)
  store i64 %25, ptr %12, align 8, !tbaa !3
  %26 = icmp slt i64 %25, 0
  br i1 %26, label %27, label %28

27:                                               ; preds = %22
  br label %52

28:                                               ; preds = %22
  %29 = load i64, ptr %12, align 8, !tbaa !3
  %30 = load ptr, ptr %9, align 8, !tbaa !7
  %31 = call i64 @H5Aopen(i64 noundef %29, ptr noundef %30, i64 noundef 0)
  store i64 %31, ptr %13, align 8, !tbaa !3
  %32 = icmp slt i64 %31, 0
  br i1 %32, label %33, label %34

33:                                               ; preds = %28
  br label %52

34:                                               ; preds = %28
  %35 = load i64, ptr %13, align 8, !tbaa !3
  %36 = load i64, ptr %10, align 8, !tbaa !3
  %37 = load ptr, ptr %11, align 8, !tbaa !14
  %38 = call i32 @H5Aread(i64 noundef %35, i64 noundef %36, ptr noundef %37)
  %39 = icmp slt i32 %38, 0
  br i1 %39, label %40, label %41

40:                                               ; preds = %34
  br label %52

41:                                               ; preds = %34
  %42 = load i64, ptr %13, align 8, !tbaa !3
  %43 = call i32 @H5Aclose(i64 noundef %42)
  %44 = icmp slt i32 %43, 0
  br i1 %44, label %45, label %46

45:                                               ; preds = %41
  br label %52

46:                                               ; preds = %41
  store i64 -1, ptr %13, align 8, !tbaa !3
  %47 = load i64, ptr %12, align 8, !tbaa !3
  %48 = call i32 @H5Oclose(i64 noundef %47)
  %49 = icmp slt i32 %48, 0
  br i1 %49, label %50, label %51

50:                                               ; preds = %46
  br label %52

51:                                               ; preds = %46
  store i64 -1, ptr %12, align 8, !tbaa !3
  store i32 0, ptr %6, align 4
  store i32 1, ptr %14, align 4
  br label %65

52:                                               ; preds = %50, %45, %40, %33, %27
  %53 = load i64, ptr %12, align 8, !tbaa !3
  %54 = icmp sgt i64 %53, 0
  br i1 %54, label %55, label %58

55:                                               ; preds = %52
  %56 = load i64, ptr %12, align 8, !tbaa !3
  %57 = call i32 @H5Oclose(i64 noundef %56)
  br label %58

58:                                               ; preds = %55, %52
  %59 = load i64, ptr %13, align 8, !tbaa !3
  %60 = icmp sgt i64 %59, 0
  br i1 %60, label %61, label %64

61:                                               ; preds = %58
  %62 = load i64, ptr %13, align 8, !tbaa !3
  %63 = call i32 @H5Aclose(i64 noundef %62)
  br label %64

64:                                               ; preds = %61, %58
  store i32 -1, ptr %6, align 4
  store i32 1, ptr %14, align 4
  br label %65

65:                                               ; preds = %64, %51, %21, %17
  call void @llvm.lifetime.end.p0(i64 8, ptr %13) #11
  call void @llvm.lifetime.end.p0(i64 8, ptr %12) #11
  %66 = load i32, ptr %6, align 4
  ret i32 %66
}