; Function Attrs: nounwind uwtable
define internal fastcc range(i32 -1, 1) i32 @H5LT_get_attribute_mem(i64 noundef %0, ptr noundef %1, ptr noundef %2, i64 noundef %3, ptr noundef %4) unnamed_addr #0 {
  %6 = icmp eq ptr %1, null
  %7 = icmp eq ptr %2, null
  %or.cond = or i1 %6, %7
  br i1 %or.cond, label %.thread23, label %8

8:                                                ; preds = %5
  %9 = tail call i64 @H5Oopen(i64 noundef %0, ptr noundef nonnull %1, i64 noundef 0) #20
  %10 = icmp slt i64 %9, 0
  br i1 %10, label %.thread23, label %11

11:                                               ; preds = %8
  %12 = tail call i64 @H5Aopen(i64 noundef %9, ptr noundef nonnull %2, i64 noundef 0) #20
  %13 = icmp slt i64 %12, 0
  br i1 %13, label %23, label %14

14:                                               ; preds = %11
  %15 = tail call i32 @H5Aread(i64 noundef %12, i64 noundef %3, ptr noundef %4) #20
  %16 = icmp slt i32 %15, 0
  br i1 %16, label %23, label %17

17:                                               ; preds = %14
  %18 = tail call i32 @H5Aclose(i64 noundef %12) #20
  %19 = icmp slt i32 %18, 0
  br i1 %19, label %23, label %20

20:                                               ; preds = %17
  %21 = tail call i32 @H5Oclose(i64 noundef %9) #20
  %22 = icmp slt i32 %21, 0
  br i1 %22, label %23, label %.thread23

23:                                               ; preds = %20, %17, %14, %11
  %.0 = phi i64 [ %12, %11 ], [ %12, %14 ], [ %12, %17 ], [ -1, %20 ]
  %.not = icmp eq i64 %9, 0
  br i1 %.not, label %26, label %24

24:                                               ; preds = %23
  %25 = tail call i32 @H5Oclose(i64 noundef %9) #20
  br label %26

26:                                               ; preds = %24, %23
  %27 = icmp sgt i64 %.0, 0
  br i1 %27, label %28, label %.thread23

28:                                               ; preds = %26
  %29 = tail call i32 @H5Aclose(i64 noundef %.0) #20
  br label %.thread23

.thread23:                                        ; preds = %8, %26, %28, %20, %5
  %.015 = phi i32 [ -1, %5 ], [ 0, %20 ], [ -1, %28 ], [ -1, %26 ], [ -1, %8 ]
  ret i32 %.015
}